; Function Attrs: nounwind uwtable
define hidden i32 @luaK_exp2anyreg(ptr noundef captures(none) %0, ptr noundef captures(none) %1) local_unnamed_addr #0 {
  tail call void @luaK_dischargevars(ptr noundef %0, ptr noundef %1)
  %3 = load i32, ptr %1, align 8, !tbaa !51
  %4 = icmp eq i32 %3, 12
  br i1 %4, label %5, label %17

5:                                                ; preds = %2
  %6 = getelementptr inbounds nuw i8, ptr %1, i64 16
  %7 = load i32, ptr %6, align 8, !tbaa !53
  %8 = getelementptr inbounds nuw i8, ptr %1, i64 20
  %9 = load i32, ptr %8, align 4, !tbaa !54
  %.not = icmp eq i32 %7, %9
  %10 = getelementptr inbounds nuw i8, ptr %1, i64 8
  br i1 %.not, label %50, label %11

11:                                               ; preds = %5
  %12 = load i32, ptr %10, align 8, !tbaa !39
  %13 = getelementptr inbounds nuw i8, ptr %0, i64 74
  %14 = load i8, ptr %13, align 2, !tbaa !18
  %15 = zext i8 %14 to i32
  %.not16 = icmp slt i32 %12, %15
  br i1 %.not16, label %17, label %16

16:                                               ; preds = %11
  tail call fastcc void @exp2reg(ptr noundef nonnull %0, ptr noundef nonnull %1, i32 noundef %12)
  br label %50

17:                                               ; preds = %11, %2
  tail call void @luaK_dischargevars(ptr noundef %0, ptr noundef nonnull %1)
  %18 = load i32, ptr %1, align 8, !tbaa !51
  %19 = icmp eq i32 %18, 12
  br i1 %19, label %20, label %freeexp.exit.i

20:                                               ; preds = %17
  %21 = getelementptr inbounds nuw i8, ptr %1, i64 8
  %22 = load i32, ptr %21, align 8, !tbaa !39
  %23 = and i32 %22, 256
  %.not.i.i.i = icmp eq i32 %23, 0
  br i1 %.not.i.i.i, label %24, label %freeexp.exit.i

24:                                               ; preds = %20
  %25 = getelementptr inbounds nuw i8, ptr %0, i64 74
  %26 = load i8, ptr %25, align 2, !tbaa !18
  %27 = zext i8 %26 to i32
  %.not3.i.i.i = icmp slt i32 %22, %27
  br i1 %.not3.i.i.i, label %freeexp.exit.i, label %28

28:                                               ; preds = %24
  %29 = getelementptr inbounds nuw i8, ptr %0, i64 60
  %30 = load i32, ptr %29, align 4, !tbaa !41
  %31 = add nsw i32 %30, -1
  store i32 %31, ptr %29, align 4, !tbaa !41
  br label %freeexp.exit.i

freeexp.exit.i:                                   ; preds = %28, %24, %20, %17
  %32 = getelementptr inbounds nuw i8, ptr %0, i64 60
  %33 = load i32, ptr %32, align 4, !tbaa !41
  %34 = add nsw i32 %33, 1
  %35 = load ptr, ptr %0, align 8, !tbaa !19
  %36 = getelementptr inbounds nuw i8, ptr %35, i64 115
  %37 = load i8, ptr %36, align 1, !tbaa !42
  %38 = zext i8 %37 to i32
  %.not.i = icmp slt i32 %33, %38
  br i1 %.not.i, label %luaK_exp2nextreg.exit, label %39

39:                                               ; preds = %freeexp.exit.i
  %40 = icmp samesign ugt i32 %34, 249
  br i1 %40, label %41, label %44

41:                                               ; preds = %39
  %42 = getelementptr inbounds nuw i8, ptr %0, i64 24
  %43 = load ptr, ptr %42, align 8, !tbaa !30
  tail call void @luaX_syntaxerror(ptr noundef %43, ptr noundef nonnull @.str) #8
  %.pre.i.i.i = load ptr, ptr %0, align 8, !tbaa !19
  %.pre.pre.i.i = load i32, ptr %32, align 4, !tbaa !41
  %.pre5.i.i = add nsw i32 %.pre.pre.i.i, 1
  br label %44

44:                                               ; preds = %41, %39
  %.pre4.pre-phi.i.i = phi i32 [ %.pre5.i.i, %41 ], [ %34, %39 ]
  %45 = phi ptr [ %.pre.i.i.i, %41 ], [ %35, %39 ]
  %46 = trunc i32 %34 to i8
  %47 = getelementptr inbounds nuw i8, ptr %45, i64 115
  store i8 %46, ptr %47, align 1, !tbaa !42
  br label %luaK_exp2nextreg.exit

luaK_exp2nextreg.exit:                            ; preds = %freeexp.exit.i, %44
  %.pre-phi.i.i = phi i32 [ %34, %freeexp.exit.i ], [ %.pre4.pre-phi.i.i, %44 ]
  store i32 %.pre-phi.i.i, ptr %32, align 4, !tbaa !41
  %48 = add nsw i32 %.pre-phi.i.i, -1
  tail call fastcc void @exp2reg(ptr noundef nonnull %0, ptr noundef nonnull %1, i32 noundef %48)
  %49 = getelementptr inbounds nuw i8, ptr %1, i64 8
  br label %50

50:                                               ; preds = %5, %luaK_exp2nextreg.exit, %16
  %.0.in = phi ptr [ %10, %16 ], [ %49, %luaK_exp2nextreg.exit ], [ %10, %5 ]
  %.0 = load i32, ptr %.0.in, align 8, !tbaa !39
  ret i32 %.0
}